target datalayout = "e-m:e-p270:32:32-p271:32:32-p272:64:64-i64:64-i128:128-f80:128-n8:16:32:64-S128"
target triple = "x86_64-pc-linux-gnu"

@.str = private unnamed_addr constant [8 x i8] c"PADDING\00", align 1
@.str.1 = private unnamed_addr constant [5 x i8] c"PING\00", align 1
@.str.2 = private unnamed_addr constant [16 x i8] c"ACK_WITHOUT_ECN\00", align 1
@.str.3 = private unnamed_addr constant [13 x i8] c"ACK_WITH_ECN\00", align 1
@.str.4 = private unnamed_addr constant [13 x i8] c"RESET_STREAM\00", align 1
@.str.5 = private unnamed_addr constant [13 x i8] c"STOP_SENDING\00", align 1
@.str.6 = private unnamed_addr constant [7 x i8] c"CRYPTO\00", align 1
@.str.7 = private unnamed_addr constant [10 x i8] c"NEW_TOKEN\00", align 1
@.str.8 = private unnamed_addr constant [9 x i8] c"MAX_DATA\00", align 1
@.str.9 = private unnamed_addr constant [16 x i8] c"MAX_STREAM_DATA\00", align 1
@.str.10 = private unnamed_addr constant [17 x i8] c"MAX_STREAMS_BIDI\00", align 1
@.str.11 = private unnamed_addr constant [16 x i8] c"MAX_STREAMS_UNI\00", align 1
@.str.12 = private unnamed_addr constant [13 x i8] c"DATA_BLOCKED\00", align 1
@.str.13 = private unnamed_addr constant [20 x i8] c"STREAM_DATA_BLOCKED\00", align 1
@.str.14 = private unnamed_addr constant [21 x i8] c"STREAMS_BLOCKED_BIDI\00", align 1
@.str.15 = private unnamed_addr constant [20 x i8] c"STREAMS_BLOCKED_UNI\00", align 1
@.str.16 = private unnamed_addr constant [12 x i8] c"NEW_CONN_ID\00", align 1
@.str.17 = private unnamed_addr constant [15 x i8] c"RETIRE_CONN_ID\00", align 1
@.str.18 = private unnamed_addr constant [15 x i8] c"PATH_CHALLENGE\00", align 1
@.str.19 = private unnamed_addr constant [14 x i8] c"PATH_RESPONSE\00", align 1
@.str.20 = private unnamed_addr constant [21 x i8] c"CONN_CLOSE_TRANSPORT\00", align 1
@.str.21 = private unnamed_addr constant [15 x i8] c"CONN_CLOSE_APP\00", align 1
@.str.22 = private unnamed_addr constant [15 x i8] c"HANDSHAKE_DONE\00", align 1
@.str.23 = private unnamed_addr constant [7 x i8] c"STREAM\00", align 1
@.str.24 = private unnamed_addr constant [11 x i8] c"STREAM_FIN\00", align 1
@.str.25 = private unnamed_addr constant [11 x i8] c"STREAM_LEN\00", align 1
@.str.26 = private unnamed_addr constant [15 x i8] c"STREAM_LEN_FIN\00", align 1
@.str.27 = private unnamed_addr constant [11 x i8] c"STREAM_OFF\00", align 1
@.str.28 = private unnamed_addr constant [15 x i8] c"STREAM_OFF_FIN\00", align 1
@.str.29 = private unnamed_addr constant [15 x i8] c"STREAM_OFF_LEN\00", align 1
@.str.30 = private unnamed_addr constant [19 x i8] c"STREAM_OFF_LEN_FIN\00", align 1

; Function Attrs: nounwind uwtable
define ptr @ossl_quic_frame_type_to_string(i64 noundef %0) #0 {
  %2 = alloca ptr, align 8
  %3 = alloca i64, align 8
  store i64 %0, ptr %3, align 8, !tbaa !8
  %4 = load i64, ptr %3, align 8, !tbaa !8
  switch i64 %4, label %36 [
    i64 0, label %5
    i64 1, label %6
    i64 2, label %7
    i64 3, label %8
    i64 4, label %9
    i64 5, label %10
    i64 6, label %11
    i64 7, label %12
    i64 16, label %13
    i64 17, label %14
    i64 18, label %15
    i64 19, label %16
    i64 20, label %17
    i64 21, label %18
    i64 22, label %19
    i64 23, label %20
    i64 24, label %21
    i64 25, label %22
    i64 26, label %23
    i64 27, label %24
    i64 28, label %25
    i64 29, label %26
    i64 30, label %27
    i64 8, label %28
    i64 9, label %29
    i64 10, label %30
    i64 11, label %31
    i64 12, label %32
    i64 13, label %33
    i64 14, label %34
    i64 15, label %35
  ]

5:                                                ; preds = %1
  store ptr @.str, ptr %2, align 8
  br label %37

6:                                                ; preds = %1
  store ptr @.str.1, ptr %2, align 8
  br label %37

7:                                                ; preds = %1
  store ptr @.str.2, ptr %2, align 8
  br label %37

8:                                                ; preds = %1
  store ptr @.str.3, ptr %2, align 8
  br label %37

9:                                                ; preds = %1
  store ptr @.str.4, ptr %2, align 8
  br label %37

10:                                               ; preds = %1
  store ptr @.str.5, ptr %2, align 8
  br label %37

11:                                               ; preds = %1
  store ptr @.str.6, ptr %2, align 8
  br label %37

12:                                               ; preds = %1
  store ptr @.str.7, ptr %2, align 8
  br label %37

13:                                               ; preds = %1
  store ptr @.str.8, ptr %2, align 8
  br label %37

14:                                               ; preds = %1
  store ptr @.str.9, ptr %2, align 8
  br label %37

15:                                               ; preds = %1
  store ptr @.str.10, ptr %2, align 8
  br label %37

16:                                               ; preds = %1
  store ptr @.str.11, ptr %2, align 8
  br label %37

17:                                               ; preds = %1
  store ptr @.str.12, ptr %2, align 8
  br label %37

18:                                               ; preds = %1
  store ptr @.str.13, ptr %2, align 8
  br label %37

19:                                               ; preds = %1
  store ptr @.str.14, ptr %2, align 8
  br label %37

20:                                               ; preds = %1
  store ptr @.str.15, ptr %2, align 8
  br label %37

21:                                               ; preds = %1
  store ptr @.str.16, ptr %2, align 8
  br label %37

22:                                               ; preds = %1
  store ptr @.str.17, ptr %2, align 8
  br label %37

23:                                               ; preds = %1
  store ptr @.str.18, ptr %2, align 8
  br label %37

24:                                               ; preds = %1
  store ptr @.str.19, ptr %2, align 8
  br label %37

25:                                               ; preds = %1
  store ptr @.str.20, ptr %2, align 8
  br label %37

26:                                               ; preds = %1
  store ptr @.str.21, ptr %2, align 8
  br label %37

27:                                               ; preds = %1
  store ptr @.str.22, ptr %2, align 8
  br label %37

28:                                               ; preds = %1
  store ptr @.str.23, ptr %2, align 8
  br label %37

29:                                               ; preds = %1
  store ptr @.str.24, ptr %2, align 8
  br label %37

30:                                               ; preds = %1
  store ptr @.str.25, ptr %2, align 8
  br label %37

31:                                               ; preds = %1
  store ptr @.str.26, ptr %2, align 8
  br label %37

32:                                               ; preds = %1
  store ptr @.str.27, ptr %2, align 8
  br label %37

33:                                               ; preds = %1
  store ptr @.str.28, ptr %2, align 8
  br label %37

34:                                               ; preds = %1
  store ptr @.str.29, ptr %2, align 8
  br label %37

35:                                               ; preds = %1
  store ptr @.str.30, ptr %2, align 8
  br label %37

36:                                               ; preds = %1
  store ptr null, ptr %2, align 8
  br label %37

37:                                               ; preds = %36, %35, %34, %33, %32, %31, %30, %29, %28, %27, %26, %25, %24, %23, %22, %21, %20, %19, %18, %17, %16, %15, %14, %13, %12, %11, %10, %9, %8, %7, %6, %5
  %38 = load ptr, ptr %2, align 8
  ret ptr %38
}